target datalayout = "e-m:e-p270:32:32-p271:32:32-p272:64:64-i64:64-i128:128-f80:128-n8:16:32:64-S128"
target triple = "x86_64-pc-linux-gnu"

%struct.OfficeArtRecordHeader_Unpacked = type <{ i16, i16, i16, i32 }>
%struct.OfficeArtFBSE_PackedLittleEndian = type { i8, i8, [16 x i8], i16, i32, i32, i32, i8, i8, i8, i8 }
%struct.OfficeArtRecordHeader_PackedLittleEndian = type { i16, i16, i32 }

@.str.1118 = private unnamed_addr constant [73 x i8] c"process_blip_store_container: Invalid recVer for Blip record header: %u\0A\00", align 1
@.str.1146 = private unnamed_addr constant [52 x i8] c"process_blip_store_container: Failed to get header\0A\00", align 1
@.str.1147 = private unnamed_addr constant [75 x i8] c"process_blip_store_container: Found a File Blip Store Entry (FBSE) record\0A\00", align 1
@.str.1148 = private unnamed_addr constant [76 x i8] c"process_blip_store_container: Invalid recVer for OfficeArtFBSErecord: 0x%x\0A\00", align 1
@.str.1149 = private unnamed_addr constant [69 x i8] c"process_blip_store_container: Not enough bytes for FSBE record data\0A\00", align 1
@.str.1150 = private unnamed_addr constant [86 x i8] c"process_blip_store_container: Not enough bytes for FSBE record data + blip file name\0A\00", align 1
@.str.1151 = private unnamed_addr constant [20 x i8] c"Blip file name: %s\0A\00", align 1
@.str.1152 = private unnamed_addr constant [142 x i8] c"process_blip_store_container: WARNING: The File Blip Store Entry claims that the Blip data is bigger than the remaining bytes in the record!\0A\00", align 1
@.str.1153 = private unnamed_addr constant [43 x i8] c"process_blip_store_container:   %d > %zu!\0A\00", align 1
@.str.1154 = private unnamed_addr constant [51 x i8] c"process_blip_store_container: Found a Blip record\0A\00", align 1
@.str.1155 = private unnamed_addr constant [54 x i8] c"process_blip_store_container: Unexpected record type\0A\00", align 1
@.str.1218 = private unnamed_addr constant [51 x i8] c"read_office_art_record_header: office art record:\0A\00", align 1
@.str.1219 = private unnamed_addr constant [52 x i8] c"read_office_art_record_header:   recVer       0x%x\0A\00", align 1
@.str.1220 = private unnamed_addr constant [52 x i8] c"read_office_art_record_header:   recInstance  0x%x\0A\00", align 1
@.str.1221 = private unnamed_addr constant [52 x i8] c"read_office_art_record_header:   recType      0x%x\0A\00", align 1
@.str.1222 = private unnamed_addr constant [50 x i8] c"read_office_art_record_header:   recLen       %u\0A\00", align 1

; Function Attrs: nounwind uwtable
define internal i32 @read_office_art_record_header(ptr noundef %0, i64 noundef %1, ptr noundef %2) #0 {
  %4 = alloca ptr, align 8
  %5 = alloca i64, align 8
  %6 = alloca ptr, align 8
  %7 = alloca i32, align 4
  %8 = alloca i16, align 2
  %9 = alloca ptr, align 8
  store ptr %0, ptr %4, align 8
  store i64 %1, ptr %5, align 8
  store ptr %2, ptr %6, align 8
  store i32 3, ptr %7, align 4
  %10 = load ptr, ptr %4, align 8
  %11 = icmp eq ptr null, %10
  br i1 %11, label %18, label %12

12:                                               ; preds = %3
  %13 = load i64, ptr %5, align 8
  %14 = icmp ugt i64 8, %13
  br i1 %14, label %18, label %15

15:                                               ; preds = %12
  %16 = load ptr, ptr %6, align 8
  %17 = icmp eq ptr null, %16
  br i1 %17, label %18, label %19

18:                                               ; preds = %15, %12, %3
  br label %62

19:                                               ; preds = %15
  %20 = load ptr, ptr %4, align 8
  store ptr %20, ptr %9, align 8
  %21 = load ptr, ptr %9, align 8
  %22 = getelementptr inbounds %struct.OfficeArtRecordHeader_PackedLittleEndian, ptr %21, i32 0, i32 0
  %23 = load i16, ptr %22, align 1
  store i16 %23, ptr %8, align 2
  %24 = load i16, ptr %8, align 2
  %25 = zext i16 %24 to i32
  %26 = and i32 %25, 15
  %27 = trunc i32 %26 to i16
  %28 = load ptr, ptr %6, align 8
  %29 = getelementptr inbounds %struct.OfficeArtRecordHeader_Unpacked, ptr %28, i32 0, i32 0
  store i16 %27, ptr %29, align 1
  %30 = load i16, ptr %8, align 2
  %31 = zext i16 %30 to i32
  %32 = and i32 %31, 65520
  %33 = ashr i32 %32, 4
  %34 = trunc i32 %33 to i16
  %35 = load ptr, ptr %6, align 8
  %36 = getelementptr inbounds %struct.OfficeArtRecordHeader_Unpacked, ptr %35, i32 0, i32 1
  store i16 %34, ptr %36, align 1
  %37 = load ptr, ptr %9, align 8
  %38 = getelementptr inbounds %struct.OfficeArtRecordHeader_PackedLittleEndian, ptr %37, i32 0, i32 1
  %39 = load i16, ptr %38, align 1
  %40 = load ptr, ptr %6, align 8
  %41 = getelementptr inbounds %struct.OfficeArtRecordHeader_Unpacked, ptr %40, i32 0, i32 2
  store i16 %39, ptr %41, align 1
  %42 = load ptr, ptr %9, align 8
  %43 = getelementptr inbounds %struct.OfficeArtRecordHeader_PackedLittleEndian, ptr %42, i32 0, i32 2
  %44 = load i32, ptr %43, align 1
  %45 = load ptr, ptr %6, align 8
  %46 = getelementptr inbounds %struct.OfficeArtRecordHeader_Unpacked, ptr %45, i32 0, i32 3
  store i32 %44, ptr %46, align 1
  call void (ptr, ...) @cli_dbgmsg(ptr noundef @.str.1218)
  %47 = load ptr, ptr %6, align 8
  %48 = getelementptr inbounds %struct.OfficeArtRecordHeader_Unpacked, ptr %47, i32 0, i32 0
  %49 = load i16, ptr %48, align 1
  %50 = zext i16 %49 to i32
  call void (ptr, ...) @cli_dbgmsg(ptr noundef @.str.1219, i32 noundef %50)
  %51 = load ptr, ptr %6, align 8
  %52 = getelementptr inbounds %struct.OfficeArtRecordHeader_Unpacked, ptr %51, i32 0, i32 1
  %53 = load i16, ptr %52, align 1
  %54 = zext i16 %53 to i32
  call void (ptr, ...) @cli_dbgmsg(ptr noundef @.str.1220, i32 noundef %54)
  %55 = load ptr, ptr %6, align 8
  %56 = getelementptr inbounds %struct.OfficeArtRecordHeader_Unpacked, ptr %55, i32 0, i32 2
  %57 = load i16, ptr %56, align 1
  %58 = zext i16 %57 to i32
  call void (ptr, ...) @cli_dbgmsg(ptr noundef @.str.1221, i32 noundef %58)
  %59 = load ptr, ptr %6, align 8
  %60 = getelementptr inbounds %struct.OfficeArtRecordHeader_Unpacked, ptr %59, i32 0, i32 3
  %61 = load i32, ptr %60, align 1
  call void (ptr, ...) @cli_dbgmsg(ptr noundef @.str.1222, i32 noundef %61)
  store i32 0, ptr %7, align 4
  br label %62

62:                                               ; preds = %19, %18
  %63 = load i32, ptr %7, align 4
  ret i32 %63
}

; Function Attrs: nounwind uwtable
define i32 @process_blip_store_container(ptr noundef %0, i64 noundef %1, ptr noundef %2) #0 {
  %4 = alloca ptr, align 8
  %5 = alloca i64, align 8
  %6 = alloca ptr, align 8
  %7 = alloca i32, align 4
  %8 = alloca %struct.OfficeArtRecordHeader_Unpacked, align 1
  %9 = alloca ptr, align 8
  %10 = alloca i64, align 8
  %11 = alloca ptr, align 8
  %12 = alloca %struct.OfficeArtRecordHeader_Unpacked, align 1
  %13 = alloca ptr, align 8
  %14 = alloca i64, align 8
  %15 = alloca ptr, align 8
  %16 = alloca [256 x i8], align 16
  store ptr %0, ptr %4, align 8
  store i64 %1, ptr %5, align 8
  store ptr %2, ptr %6, align 8
  store i32 3, ptr %7, align 4
  %17 = load ptr, ptr %4, align 8
  store ptr %17, ptr %9, align 8
  %18 = load i64, ptr %5, align 8
  store i64 %18, ptr %10, align 8
  br label %19

19:                                               ; preds = %182, %3
  %20 = load i64, ptr %10, align 8
  %21 = icmp ult i64 0, %20
  br i1 %21, label %22, label %183

22:                                               ; preds = %19
  %23 = load ptr, ptr %9, align 8
  %24 = load i64, ptr %10, align 8
  %25 = call i32 @read_office_art_record_header(ptr noundef %23, i64 noundef %24, ptr noundef %8)
  %26 = icmp ne i32 0, %25
  br i1 %26, label %27, label %28

27:                                               ; preds = %22
  call void (ptr, ...) @cli_dbgmsg(ptr noundef @.str.1146)
  br label %184

28:                                               ; preds = %22
  %29 = getelementptr inbounds %struct.OfficeArtRecordHeader_Unpacked, ptr %8, i32 0, i32 0
  %30 = load i16, ptr %29, align 1
  %31 = zext i16 %30 to i32
  %32 = icmp ne i32 0, %31
  br i1 %32, label %33, label %37

33:                                               ; preds = %28
  %34 = getelementptr inbounds %struct.OfficeArtRecordHeader_Unpacked, ptr %8, i32 0, i32 0
  %35 = load i16, ptr %34, align 1
  %36 = zext i16 %35 to i32
  call void (ptr, ...) @cli_dbgmsg(ptr noundef @.str.1118, i32 noundef %36)
  br label %37

37:                                               ; preds = %33, %28
  %38 = getelementptr inbounds %struct.OfficeArtRecordHeader_Unpacked, ptr %8, i32 0, i32 2
  %39 = load i16, ptr %38, align 1
  %40 = zext i16 %39 to i32
  %41 = icmp eq i32 61447, %40
  br i1 %41, label %42, label %140

42:                                               ; preds = %37
  call void (ptr, ...) @cli_dbgmsg(ptr noundef @.str.1147)
  %43 = getelementptr inbounds %struct.OfficeArtRecordHeader_Unpacked, ptr %8, i32 0, i32 0
  %44 = load i16, ptr %43, align 1
  %45 = zext i16 %44 to i32
  %46 = icmp ne i32 2, %45
  br i1 %46, label %47, label %51

47:                                               ; preds = %42
  %48 = getelementptr inbounds %struct.OfficeArtRecordHeader_Unpacked, ptr %8, i32 0, i32 0
  %49 = load i16, ptr %48, align 1
  %50 = zext i16 %49 to i32
  call void (ptr, ...) @cli_dbgmsg(ptr noundef @.str.1148, i32 noundef %50)
  br label %51

51:                                               ; preds = %47, %42
  %52 = load i64, ptr %10, align 8
  %53 = sub i64 %52, 8
  %54 = icmp ugt i64 36, %53
  br i1 %54, label %55, label %56

55:                                               ; preds = %51
  call void (ptr, ...) @cli_dbgmsg(ptr noundef @.str.1149)
  br label %139

56:                                               ; preds = %51
  %57 = load ptr, ptr %9, align 8
  %58 = getelementptr inbounds i8, ptr %57, i64 8
  store ptr %58, ptr %11, align 8
  %59 = load ptr, ptr %11, align 8
  %60 = getelementptr inbounds %struct.OfficeArtFBSE_PackedLittleEndian, ptr %59, i32 0, i32 8
  %61 = load i8, ptr %60, align 1
  %62 = zext i8 %61 to i64
  %63 = load i64, ptr %10, align 8
  %64 = sub i64 %63, 8
  %65 = sub i64 %64, 36
  %66 = icmp ugt i64 %62, %65
  br i1 %66, label %67, label %68

67:                                               ; preds = %56
  call void (ptr, ...) @cli_dbgmsg(ptr noundef @.str.1150)
  br label %138

68:                                               ; preds = %56
  store ptr null, ptr %15, align 8
  call void @llvm.memset.p0.i64(ptr align 16 %16, i8 0, i64 256, i1 false)
  %69 = load ptr, ptr %11, align 8
  %70 = getelementptr inbounds %struct.OfficeArtFBSE_PackedLittleEndian, ptr %69, i32 0, i32 8
  %71 = load i8, ptr %70, align 1
  %72 = zext i8 %71 to i32
  %73 = icmp sgt i32 %72, 0
  br i1 %73, label %74, label %90

74:                                               ; preds = %68
  %75 = getelementptr inbounds [256 x i8], ptr %16, i64 0, i64 0
  %76 = load ptr, ptr %9, align 8
  %77 = getelementptr inbounds i8, ptr %76, i64 8
  %78 = getelementptr inbounds i8, ptr %77, i64 36
  %79 = load ptr, ptr %11, align 8
  %80 = getelementptr inbounds %struct.OfficeArtFBSE_PackedLittleEndian, ptr %79, i32 0, i32 8
  %81 = load i8, ptr %80, align 1
  %82 = zext i8 %81 to i64
  call void @llvm.memcpy.p0.p0.i64(ptr align 16 %75, ptr align 1 %78, i64 %82, i1 false)
  %83 = load ptr, ptr %11, align 8
  %84 = getelementptr inbounds %struct.OfficeArtFBSE_PackedLittleEndian, ptr %83, i32 0, i32 8
  %85 = load i8, ptr %84, align 1
  %86 = zext i8 %85 to i64
  %87 = getelementptr inbounds [256 x i8], ptr %16, i64 0, i64 %86
  store i8 0, ptr %87, align 1
  %88 = getelementptr inbounds [256 x i8], ptr %16, i64 0, i64 0
  store ptr %88, ptr %15, align 8
  %89 = load ptr, ptr %15, align 8
  call void (ptr, ...) @cli_dbgmsg(ptr noundef @.str.1151, ptr noundef %89)
  br label %90

90:                                               ; preds = %74, %68
  %91 = load ptr, ptr %9, align 8
  %92 = getelementptr inbounds i8, ptr %91, i64 8
  %93 = getelementptr inbounds i8, ptr %92, i64 36
  %94 = load ptr, ptr %11, align 8
  %95 = getelementptr inbounds %struct.OfficeArtFBSE_PackedLittleEndian, ptr %94, i32 0, i32 8
  %96 = load i8, ptr %95, align 1
  %97 = zext i8 %96 to i64
  %98 = getelementptr inbounds i8, ptr %93, i64 %97
  store ptr %98, ptr %13, align 8
  %99 = load i64, ptr %10, align 8
  %100 = sub i64 %99, 8
  %101 = sub i64 %100, 36
  %102 = load ptr, ptr %11, align 8
  %103 = getelementptr inbounds %struct.OfficeArtFBSE_PackedLittleEndian, ptr %102, i32 0, i32 8
  %104 = load i8, ptr %103, align 1
  %105 = zext i8 %104 to i64
  %106 = sub i64 %101, %105
  store i64 %106, ptr %14, align 8
  %107 = load ptr, ptr %11, align 8
  %108 = getelementptr inbounds %struct.OfficeArtFBSE_PackedLittleEndian, ptr %107, i32 0, i32 4
  %109 = load i32, ptr %108, align 1
  %110 = zext i32 %109 to i64
  %111 = load i64, ptr %14, align 8
  %112 = icmp ugt i64 %110, %111
  br i1 %112, label %113, label %118

113:                                              ; preds = %90
  call void (ptr, ...) @cli_dbgmsg(ptr noundef @.str.1152)
  %114 = load ptr, ptr %11, align 8
  %115 = getelementptr inbounds %struct.OfficeArtFBSE_PackedLittleEndian, ptr %114, i32 0, i32 4
  %116 = load i32, ptr %115, align 1
  %117 = load i64, ptr %14, align 8
  call void (ptr, ...) @cli_dbgmsg(ptr noundef @.str.1153, i32 noundef %116, i64 noundef %117)
  br label %123

118:                                              ; preds = %90
  %119 = load ptr, ptr %11, align 8
  %120 = getelementptr inbounds %struct.OfficeArtFBSE_PackedLittleEndian, ptr %119, i32 0, i32 4
  %121 = load i32, ptr %120, align 1
  %122 = zext i32 %121 to i64
  store i64 %122, ptr %14, align 8
  br label %123

123:                                              ; preds = %118, %113
  %124 = load ptr, ptr %13, align 8
  %125 = load i64, ptr %14, align 8
  %126 = call i32 @read_office_art_record_header(ptr noundef %124, i64 noundef %125, ptr noundef %12)
  %127 = icmp ne i32 0, %126
  br i1 %127, label %128, label %129

128:                                              ; preds = %123
  call void (ptr, ...) @cli_dbgmsg(ptr noundef @.str.1146)
  br label %184

129:                                              ; preds = %123
  %130 = load ptr, ptr %13, align 8
  %131 = load i64, ptr %14, align 8
  %132 = load ptr, ptr %6, align 8
  %133 = call i32 @process_blip_record(ptr noundef %12, ptr noundef %130, i64 noundef %131, ptr noundef %132)
  store i32 %133, ptr %7, align 4
  %134 = load i32, ptr %7, align 4
  %135 = icmp ne i32 0, %134
  br i1 %135, label %136, label %137

136:                                              ; preds = %129
  br label %184

137:                                              ; preds = %129
  br label %138

138:                                              ; preds = %137, %67
  br label %139

139:                                              ; preds = %138, %55
  br label %161

140:                                              ; preds = %37
  %141 = getelementptr inbounds %struct.OfficeArtRecordHeader_Unpacked, ptr %8, i32 0, i32 2
  %142 = load i16, ptr %141, align 1
  %143 = zext i16 %142 to i32
  %144 = icmp sle i32 61464, %143
  br i1 %144, label %145, label %159

145:                                              ; preds = %140
  %146 = getelementptr inbounds %struct.OfficeArtRecordHeader_Unpacked, ptr %8, i32 0, i32 2
  %147 = load i16, ptr %146, align 1
  %148 = zext i16 %147 to i32
  %149 = icmp sge i32 61719, %148
  br i1 %149, label %150, label %159

150:                                              ; preds = %145
  call void (ptr, ...) @cli_dbgmsg(ptr noundef @.str.1154)
  %151 = load ptr, ptr %9, align 8
  %152 = load i64, ptr %10, align 8
  %153 = load ptr, ptr %6, align 8
  %154 = call i32 @process_blip_record(ptr noundef %8, ptr noundef %151, i64 noundef %152, ptr noundef %153)
  store i32 %154, ptr %7, align 4
  %155 = load i32, ptr %7, align 4
  %156 = icmp ne i32 0, %155
  br i1 %156, label %157, label %158

157:                                              ; preds = %150
  br label %184

158:                                              ; preds = %150
  br label %160

159:                                              ; preds = %145, %140
  call void (ptr, ...) @cli_dbgmsg(ptr noundef @.str.1155)
  br label %160

160:                                              ; preds = %159, %158
  br label %161

161:                                              ; preds = %160, %139
  %162 = load i64, ptr %10, align 8
  %163 = getelementptr inbounds %struct.OfficeArtRecordHeader_Unpacked, ptr %8, i32 0, i32 3
  %164 = load i32, ptr %163, align 1
  %165 = zext i32 %164 to i64
  %166 = add i64 8, %165
  %167 = icmp ult i64 %162, %166
  br i1 %167, label %168, label %169

168:                                              ; preds = %161
  store i64 0, ptr %10, align 8
  br label %182

169:                                              ; preds = %161
  %170 = getelementptr inbounds %struct.OfficeArtRecordHeader_Unpacked, ptr %8, i32 0, i32 3
  %171 = load i32, ptr %170, align 1
  %172 = zext i32 %171 to i64
  %173 = add i64 8, %172
  %174 = load i64, ptr %10, align 8
  %175 = sub i64 %174, %173
  store i64 %175, ptr %10, align 8
  %176 = getelementptr inbounds %struct.OfficeArtRecordHeader_Unpacked, ptr %8, i32 0, i32 3
  %177 = load i32, ptr %176, align 1
  %178 = zext i32 %177 to i64
  %179 = add i64 8, %178
  %180 = load ptr, ptr %9, align 8
  %181 = getelementptr inbounds i8, ptr %180, i64 %179
  store ptr %181, ptr %9, align 8
  br label %182

182:                                              ; preds = %169, %168
  br label %19

183:                                              ; preds = %19
  store i32 0, ptr %7, align 4
  br label %184

184:                                              ; preds = %183, %157, %136, %128, %27
  %185 = load i32, ptr %7, align 4
  ret i32 %185
}